target datalayout = "e-m:e-p270:32:32-p271:32:32-p272:64:64-i64:64-f80:128-n8:16:32:64-S128"
target triple = "x86_64-pc-linux-gnu"

@.str = private unnamed_addr constant [3 x i8] c"%d\00", align 1
@.str.1 = private unnamed_addr constant [4 x i8] c"%d\0A\00", align 1

; Function Attrs: noinline nounwind uwtable
define dso_local i32 @main() #0 {
  %1 = alloca i32, align 4
  %2 = alloca [100 x i32*], align 16
  %3 = alloca i32, align 4
  %4 = alloca i32*, align 8
  %5 = alloca i32*, align 8
  %6 = alloca i32, align 4
  %7 = alloca i32, align 4
  %8 = alloca i32, align 4
  %9 = alloca i32, align 4
  store i32 0, i32* %1, align 4
  store i32 0, i32* %7, align 4
  %10 = call i32 (i8*, ...) @__isoc99_scanf(i8* getelementptr inbounds ([3 x i8], [3 x i8]* @.str, i64 0, i64 0), i32* %3)
  %11 = call noalias i8* @malloc(i64 400) #3
  %12 = bitcast i8* %11 to i32*
  store i32* %12, i32** %4, align 8
  %13 = call noalias i8* @malloc(i64 400) #3
  %14 = bitcast i8* %13 to i32*
  store i32* %14, i32** %5, align 8
  store i32 0, i32* %6, align 4
  br label %15

15:                                               ; preds = %90, %0
  %16 = load i32, i32* %6, align 4
  %17 = load i32, i32* %3, align 4
  %18 = icmp slt i32 %16, %17
  br i1 %18, label %19, label %93

19:                                               ; preds = %15
  %20 = load i32*, i32** %4, align 8
  %21 = load i32, i32* %6, align 4
  %22 = sext i32 %21 to i64
  %23 = getelementptr inbounds i32, i32* %20, i64 %22
  %24 = call i32 (i8*, ...) @__isoc99_scanf(i8* getelementptr inbounds ([3 x i8], [3 x i8]* @.str, i64 0, i64 0), i32* %23)
  %25 = load i32*, i32** %5, align 8
  %26 = load i32, i32* %6, align 4
  %27 = sext i32 %26 to i64
  %28 = getelementptr inbounds i32, i32* %25, i64 %27
  %29 = call i32 (i8*, ...) @__isoc99_scanf(i8* getelementptr inbounds ([3 x i8], [3 x i8]* @.str, i64 0, i64 0), i32* %28)
  %30 = load i32*, i32** %4, align 8
  %31 = load i32, i32* %6, align 4
  %32 = sext i32 %31 to i64
  %33 = getelementptr inbounds i32, i32* %30, i64 %32
  %34 = load i32, i32* %33, align 4
  %35 = load i32*, i32** %5, align 8
  %36 = load i32, i32* %6, align 4
  %37 = sext i32 %36 to i64
  %38 = getelementptr inbounds i32, i32* %35, i64 %37
  %39 = load i32, i32* %38, align 4
  %40 = mul nsw i32 %34, %39
  %41 = sext i32 %40 to i64
  %42 = mul i64 %41, 4
  %43 = call noalias i8* @malloc(i64 %42) #3
  %44 = bitcast i8* %43 to i32*
  %45 = load i32, i32* %6, align 4
  %46 = sext i32 %45 to i64
  %47 = getelementptr inbounds [100 x i32*], [100 x i32*]* %2, i64 0, i64 %46
  store i32* %44, i32** %47, align 8
  store i32 0, i32* %8, align 4
  br label %48

48:                                               ; preds = %86, %19
  %49 = load i32, i32* %8, align 4
  %50 = load i32*, i32** %4, align 8
  %51 = load i32, i32* %6, align 4
  %52 = sext i32 %51 to i64
  %53 = getelementptr inbounds i32, i32* %50, i64 %52
  %54 = load i32, i32* %53, align 4
  %55 = icmp slt i32 %49, %54
  br i1 %55, label %56, label %89

56:                                               ; preds = %48
  store i32 0, i32* %9, align 4
  br label %57

57:                                               ; preds = %82, %56
  %58 = load i32, i32* %9, align 4
  %59 = load i32*, i32** %5, align 8
  %60 = load i32, i32* %6, align 4
  %61 = sext i32 %60 to i64
  %62 = getelementptr inbounds i32, i32* %59, i64 %61
  %63 = load i32, i32* %62, align 4
  %64 = icmp slt i32 %58, %63
  br i1 %64, label %65, label %85

65:                                               ; preds = %57
  %66 = load i32, i32* %6, align 4
  %67 = sext i32 %66 to i64
  %68 = getelementptr inbounds [100 x i32*], [100 x i32*]* %2, i64 0, i64 %67
  %69 = load i32*, i32** %68, align 8
  %70 = load i32, i32* %8, align 4
  %71 = load i32*, i32** %5, align 8
  %72 = load i32, i32* %6, align 4
  %73 = sext i32 %72 to i64
  %74 = getelementptr inbounds i32, i32* %71, i64 %73
  %75 = load i32, i32* %74, align 4
  %76 = mul nsw i32 %70, %75
  %77 = load i32, i32* %9, align 4
  %78 = add nsw i32 %76, %77
  %79 = sext i32 %78 to i64
  %80 = getelementptr inbounds i32, i32* %69, i64 %79
  %81 = call i32 (i8*, ...) @__isoc99_scanf(i8* getelementptr inbounds ([3 x i8], [3 x i8]* @.str, i64 0, i64 0), i32* %80)
  br label %82

82:                                               ; preds = %65
  %83 = load i32, i32* %9, align 4
  %84 = add nsw i32 %83, 1
  store i32 %84, i32* %9, align 4
  br label %57

85:                                               ; preds = %57
  br label %86

86:                                               ; preds = %85
  %87 = load i32, i32* %8, align 4
  %88 = add nsw i32 %87, 1
  store i32 %88, i32* %8, align 4
  br label %48

89:                                               ; preds = %48
  br label %90

90:                                               ; preds = %89
  %91 = load i32, i32* %6, align 4
  %92 = add nsw i32 %91, 1
  store i32 %92, i32* %6, align 4
  br label %15

93:                                               ; preds = %15
  store i32 0, i32* %6, align 4
  br label %94

94:                                               ; preds = %196, %93
  %95 = load i32, i32* %6, align 4
  %96 = load i32, i32* %3, align 4
  %97 = icmp slt i32 %95, %96
  br i1 %97, label %98, label %199

98:                                               ; preds = %94
  store i32 0, i32* %8, align 4
  br label %99

99:                                               ; preds = %142, %98
  %100 = load i32, i32* %8, align 4
  %101 = load i32*, i32** %4, align 8
  %102 = load i32, i32* %6, align 4
  %103 = sext i32 %102 to i64
  %104 = getelementptr inbounds i32, i32* %101, i64 %103
  %105 = load i32, i32* %104, align 4
  %106 = icmp slt i32 %100, %105
  br i1 %106, label %107, label %145

107:                                              ; preds = %99
  %108 = load i32, i32* %7, align 4
  %109 = load i32, i32* %6, align 4
  %110 = sext i32 %109 to i64
  %111 = getelementptr inbounds [100 x i32*], [100 x i32*]* %2, i64 0, i64 %110
  %112 = load i32*, i32** %111, align 8
  %113 = load i32, i32* %8, align 4
  %114 = load i32*, i32** %5, align 8
  %115 = load i32, i32* %6, align 4
  %116 = sext i32 %115 to i64
  %117 = getelementptr inbounds i32, i32* %114, i64 %116
  %118 = load i32, i32* %117, align 4
  %119 = mul nsw i32 %113, %118
  %120 = sext i32 %119 to i64
  %121 = getelementptr inbounds i32, i32* %112, i64 %120
  %122 = load i32, i32* %121, align 4
  %123 = add nsw i32 %108, %122
  store i32 %123, i32* %7, align 4
  %124 = load i32, i32* %7, align 4
  %125 = load i32, i32* %6, align 4
  %126 = sext i32 %125 to i64
  %127 = getelementptr inbounds [100 x i32*], [100 x i32*]* %2, i64 0, i64 %126
  %128 = load i32*, i32** %127, align 8
  %129 = load i32, i32* %8, align 4
  %130 = add nsw i32 %129, 1
  %131 = load i32*, i32** %5, align 8
  %132 = load i32, i32* %6, align 4
  %133 = sext i32 %132 to i64
  %134 = getelementptr inbounds i32, i32* %131, i64 %133
  %135 = load i32, i32* %134, align 4
  %136 = mul nsw i32 %130, %135
  %137 = sub nsw i32 %136, 1
  %138 = sext i32 %137 to i64
  %139 = getelementptr inbounds i32, i32* %128, i64 %138
  %140 = load i32, i32* %139, align 4
  %141 = add nsw i32 %124, %140
  store i32 %141, i32* %7, align 4
  br label %142

142:                                              ; preds = %107
  %143 = load i32, i32* %8, align 4
  %144 = add nsw i32 %143, 1
  store i32 %144, i32* %8, align 4
  br label %99

145:                                              ; preds = %99
  store i32 1, i32* %9, align 4
  br label %146

146:                                              ; preds = %190, %145
  %147 = load i32, i32* %9, align 4
  %148 = load i32*, i32** %5, align 8
  %149 = load i32, i32* %6, align 4
  %150 = sext i32 %149 to i64
  %151 = getelementptr inbounds i32, i32* %148, i64 %150
  %152 = load i32, i32* %151, align 4
  %153 = sub nsw i32 %152, 1
  %154 = icmp slt i32 %147, %153
  br i1 %154, label %155, label %193

155:                                              ; preds = %146
  %156 = load i32, i32* %7, align 4
  %157 = load i32, i32* %6, align 4
  %158 = sext i32 %157 to i64
  %159 = getelementptr inbounds [100 x i32*], [100 x i32*]* %2, i64 0, i64 %158
  %160 = load i32*, i32** %159, align 8
  %161 = load i32, i32* %9, align 4
  %162 = sext i32 %161 to i64
  %163 = getelementptr inbounds i32, i32* %160, i64 %162
  %164 = load i32, i32* %163, align 4
  %165 = add nsw i32 %156, %164
  store i32 %165, i32* %7, align 4
  %166 = load i32, i32* %7, align 4
  %167 = load i32, i32* %6, align 4
  %168 = sext i32 %167 to i64
  %169 = getelementptr inbounds [100 x i32*], [100 x i32*]* %2, i64 0, i64 %168
  %170 = load i32*, i32** %169, align 8
  %171 = load i32, i32* %9, align 4
  %172 = sext i32 %171 to i64
  %173 = getelementptr inbounds i32, i32* %170, i64 %172
  %174 = load i32*, i32** %4, align 8
  %175 = load i32, i32* %6, align 4
  %176 = sext i32 %175 to i64
  %177 = getelementptr inbounds i32, i32* %174, i64 %176
  %178 = load i32, i32* %177, align 4
  %179 = sub nsw i32 %178, 1
  %180 = load i32*, i32** %5, align 8
  %181 = load i32, i32* %6, align 4
  %182 = sext i32 %181 to i64
  %183 = getelementptr inbounds i32, i32* %180, i64 %182
  %184 = load i32, i32* %183, align 4
  %185 = mul nsw i32 %179, %184
  %186 = sext i32 %185 to i64
  %187 = getelementptr inbounds i32, i32* %173, i64 %186
  %188 = load i32, i32* %187, align 4
  %189 = add nsw i32 %166, %188
  store i32 %189, i32* %7, align 4
  br label %190

190:                                              ; preds = %155
  %191 = load i32, i32* %9, align 4
  %192 = add nsw i32 %191, 1
  store i32 %192, i32* %9, align 4
  br label %146

193:                                              ; preds = %146
  %194 = load i32, i32* %7, align 4
  %195 = call i32 (i8*, ...) @printf(i8* getelementptr inbounds ([4 x i8], [4 x i8]* @.str.1, i64 0, i64 0), i32 %194)
  store i32 0, i32* %7, align 4
  br label %196

196:                                              ; preds = %193
  %197 = load i32, i32* %6, align 4
  %198 = add nsw i32 %197, 1
  store i32 %198, i32* %6, align 4
  br label %94

199:                                              ; preds = %94
  ret i32 0
}